; ModuleID = 'source-C-CXX/3/416.c'
source_filename = "source-C-CXX/3/416.c"
target datalayout = "e-m:e-p270:32:32-p271:32:32-p272:64:64-i64:64-f80:128-n8:16:32:64-S128"
target triple = "x86_64-pc-linux-gnu"

@.str = private unnamed_addr constant [5 x i8] c"%d%d\00", align 1
@.str.1 = private unnamed_addr constant [3 x i8] c"%d\00", align 1
@.str.2 = private unnamed_addr constant [4 x i8] c"%d\0A\00", align 1

; Function Attrs: nofree nounwind sspstrong uwtable
define dso_local i32 @main() local_unnamed_addr #0 {
  %1 = alloca i32, align 4
  %2 = alloca i32, align 4
  %3 = alloca [120 x [120 x i32]], align 16
  %4 = bitcast i32* %1 to i8*
  call void @llvm.lifetime.start.p0i8(i64 4, i8* nonnull %4) #3
  %5 = bitcast i32* %2 to i8*
  call void @llvm.lifetime.start.p0i8(i64 4, i8* nonnull %5) #3
  %6 = bitcast [120 x [120 x i32]]* %3 to i8*
  call void @llvm.lifetime.start.p0i8(i64 57600, i8* nonnull %6) #3
  %7 = call i32 (i8*, ...) @__isoc99_scanf(i8* getelementptr inbounds ([5 x i8], [5 x i8]* @.str, i64 0, i64 0), i32* nonnull %1, i32* nonnull %2)
  %8 = load i32, i32* %1, align 4, !tbaa !5
  %9 = icmp slt i32 %8, 1
  %10 = load i32, i32* %2, align 4, !tbaa !5
  %11 = icmp slt i32 %10, 1
  %12 = select i1 %9, i1 true, i1 %11
  br i1 %12, label %18, label %13

13:                                               ; preds = %0, %33
  %14 = phi i32 [ %34, %33 ], [ %8, %0 ]
  %15 = phi i32 [ %35, %33 ], [ %10, %0 ]
  %16 = phi i64 [ %36, %33 ], [ 1, %0 ]
  %17 = icmp slt i32 %15, 1
  br i1 %17, label %33, label %23

18:                                               ; preds = %33, %0
  %19 = phi i32 [ %8, %0 ], [ %34, %33 ]
  %20 = phi i32 [ %10, %0 ], [ %35, %33 ]
  %21 = mul nsw i32 %19, %20
  %22 = icmp sgt i32 %21, 0
  br i1 %22, label %39, label %80

23:                                               ; preds = %13, %23
  %24 = phi i64 [ %27, %23 ], [ 1, %13 ]
  %25 = getelementptr inbounds [120 x [120 x i32]], [120 x [120 x i32]]* %3, i64 0, i64 %16, i64 %24
  %26 = call i32 (i8*, ...) @__isoc99_scanf(i8* getelementptr inbounds ([3 x i8], [3 x i8]* @.str.1, i64 0, i64 0), i32* nonnull %25)
  %27 = add nuw nsw i64 %24, 1
  %28 = load i32, i32* %2, align 4, !tbaa !5
  %29 = sext i32 %28 to i64
  %30 = icmp slt i64 %24, %29
  br i1 %30, label %23, label %31, !llvm.loop !9

31:                                               ; preds = %23
  %32 = load i32, i32* %1, align 4, !tbaa !5
  br label %33

33:                                               ; preds = %31, %13
  %34 = phi i32 [ %32, %31 ], [ %14, %13 ]
  %35 = phi i32 [ %28, %31 ], [ %15, %13 ]
  %36 = add nuw nsw i64 %16, 1
  %37 = sext i32 %34 to i64
  %38 = icmp slt i64 %16, %37
  br i1 %38, label %13, label %18, !llvm.loop !11

39:                                               ; preds = %18, %74
  %40 = phi i32 [ %76, %74 ], [ 1, %18 ]
  %41 = phi i32 [ %75, %74 ], [ 1, %18 ]
  %42 = phi i32 [ %48, %74 ], [ 0, %18 ]
  %43 = sext i32 %40 to i64
  %44 = sext i32 %41 to i64
  %45 = getelementptr inbounds [120 x [120 x i32]], [120 x [120 x i32]]* %3, i64 0, i64 %43, i64 %44
  %46 = load i32, i32* %45, align 4, !tbaa !5
  %47 = call i32 (i8*, ...) @printf(i8* nonnull dereferenceable(1) getelementptr inbounds ([4 x i8], [4 x i8]* @.str.2, i64 0, i64 0), i32 %46)
  %48 = add nuw nsw i32 %42, 1
  %49 = icmp eq i32 %41, 1
  %50 = load i32, i32* %2, align 4
  %51 = icmp slt i32 %40, %50
  %52 = select i1 %49, i1 %51, i1 false
  br i1 %52, label %53, label %55

53:                                               ; preds = %39
  %54 = add nsw i32 %40, 1
  br label %74

55:                                               ; preds = %39
  %56 = xor i1 %49, true
  %57 = select i1 %56, i1 true, i1 %51
  br i1 %57, label %61, label %58

58:                                               ; preds = %55
  %59 = add i32 %40, 2
  %60 = sub i32 %59, %50
  br label %74

61:                                               ; preds = %55
  %62 = load i32, i32* %1, align 4, !tbaa !5
  %63 = icmp eq i32 %40, %62
  br i1 %63, label %64, label %71

64:                                               ; preds = %61
  %65 = add nsw i32 %40, %41
  %66 = icmp sgt i32 %65, %50
  br i1 %66, label %67, label %74

67:                                               ; preds = %64
  %68 = add i32 %41, 1
  %69 = sub i32 %68, %50
  %70 = add i32 %69, %40
  br label %74

71:                                               ; preds = %61
  %72 = add nsw i32 %40, 1
  %73 = add nsw i32 %41, -1
  br label %74

74:                                               ; preds = %64, %58, %67, %71, %53
  %75 = phi i32 [ %54, %53 ], [ %50, %58 ], [ %50, %67 ], [ %73, %71 ], [ %65, %64 ]
  %76 = phi i32 [ 1, %53 ], [ %60, %58 ], [ %70, %67 ], [ %72, %71 ], [ 1, %64 ]
  %77 = load i32, i32* %1, align 4, !tbaa !5
  %78 = mul nsw i32 %77, %50
  %79 = icmp slt i32 %48, %78
  br i1 %79, label %39, label %80, !llvm.loop !13

80:                                               ; preds = %74, %18
  call void @llvm.lifetime.end.p0i8(i64 57600, i8* nonnull %6) #3
  call void @llvm.lifetime.end.p0i8(i64 4, i8* nonnull %5) #3
  call void @llvm.lifetime.end.p0i8(i64 4, i8* nonnull %4) #3
  ret i32 0
}

; Function Attrs: argmemonly mustprogress nofree nosync nounwind willreturn
declare void @llvm.lifetime.start.p0i8(i64 immarg, i8* nocapture) #1

; Function Attrs: nofree nounwind
declare noundef i32 @__isoc99_scanf(i8* nocapture noundef readonly, ...) local_unnamed_addr #2

; Function Attrs: nofree nounwind
declare noundef i32 @printf(i8* nocapture noundef readonly, ...) local_unnamed_addr #2

; Function Attrs: argmemonly mustprogress nofree nosync nounwind willreturn
declare void @llvm.lifetime.end.p0i8(i64 immarg, i8* nocapture) #1


!llvm.module.flags = !{!0, !1, !2, !3}
!llvm.ident = !{!4}

!0 = !{i32 1, !"wchar_size", i32 4}
!1 = !{i32 7, !"PIC Level", i32 2}
!2 = !{i32 7, !"PIE Level", i32 2}
!3 = !{i32 7, !"uwtable", i32 1}
!4 = !{!"clang version 13.0.0"}
!5 = !{!6, !6, i64 0}
!6 = !{!"int", !7, i64 0}
!7 = !{!"omnipotent char", !8, i64 0}
!8 = !{!"Simple C/C++ TBAA"}
!9 = distinct !{!9, !10}
!10 = !{!"llvm.loop.mustprogress"}
!11 = distinct !{!11, !10, !12}
!12 = !{!"llvm.loop.unswitch.partial.disable"}
!13 = distinct !{!13, !10}
